; ModuleID = '43/96.c'
source_filename = "43/96.c"
target datalayout = "e-m:e-p270:32:32-p271:32:32-p272:64:64-i64:64-f80:128-n8:16:32:64-S128"
target triple = "x86_64-pc-linux-gnu"

@.str = private unnamed_addr constant [3 x i8] c"%d\00", align 1
@.str.1 = private unnamed_addr constant [7 x i8] c"%d %d\0A\00", align 1

; Function Attrs: noinline nounwind uwtable
define dso_local i32 @main() #0 {
  %1 = alloca i32, align 4
  %2 = alloca i32, align 4
  %3 = alloca i32, align 4
  %4 = alloca i32, align 4
  %5 = alloca i32 (i32)*, align 8
  store i32 0, i32* %1, align 4
  %6 = call i32 (i8*, ...) @__isoc99_scanf(i8* getelementptr inbounds ([3 x i8], [3 x i8]* @.str, i64 0, i64 0), i32* %2)
  store i32 (i32)* @f, i32 (i32)** %5, align 8
  store i32 3, i32* %3, align 4
  br label %7

7:                                                ; preds = %32, %0
  %8 = load i32, i32* %3, align 4
  %9 = load i32, i32* %2, align 4
  %10 = sdiv i32 %9, 2
  %11 = add nsw i32 %10, 1
  %12 = icmp slt i32 %8, %11
  br i1 %12, label %13, label %35

13:                                               ; preds = %7
  %14 = load i32 (i32)*, i32 (i32)** %5, align 8
  %15 = load i32, i32* %3, align 4
  %16 = call i32 %14(i32 %15)
  %17 = icmp eq i32 %16, 1
  br i1 %17, label %18, label %31

18:                                               ; preds = %13
  %19 = load i32 (i32)*, i32 (i32)** %5, align 8
  %20 = load i32, i32* %2, align 4
  %21 = load i32, i32* %3, align 4
  %22 = sub nsw i32 %20, %21
  %23 = call i32 %19(i32 %22)
  %24 = icmp eq i32 %23, 1
  br i1 %24, label %25, label %31

25:                                               ; preds = %18
  %26 = load i32, i32* %3, align 4
  %27 = load i32, i32* %2, align 4
  %28 = load i32, i32* %3, align 4
  %29 = sub nsw i32 %27, %28
  %30 = call i32 (i8*, ...) @printf(i8* getelementptr inbounds ([7 x i8], [7 x i8]* @.str.1, i64 0, i64 0), i32 %26, i32 %29)
  br label %31

31:                                               ; preds = %25, %18, %13
  br label %32

32:                                               ; preds = %31
  %33 = load i32, i32* %3, align 4
  %34 = add nsw i32 %33, 2
  store i32 %34, i32* %3, align 4
  br label %7

35:                                               ; preds = %7
  %36 = call i32 @getchar()
  %37 = call i32 @getchar()
  %38 = load i32, i32* %1, align 4
  ret i32 %38
}

declare dso_local i32 @__isoc99_scanf(i8*, ...) #1

; Function Attrs: noinline nounwind uwtable
define dso_local i32 @f(i32 %0) #0 {
  %2 = alloca i32, align 4
  %3 = alloca i32, align 4
  %4 = alloca i32, align 4
  store i32 %0, i32* %2, align 4
  store i32 2, i32* %3, align 4
  br label %5

5:                                                ; preds = %16, %1
  %6 = load i32, i32* %3, align 4
  %7 = load i32, i32* %2, align 4
  %8 = icmp slt i32 %6, %7
  br i1 %8, label %9, label %19

9:                                                ; preds = %5
  %10 = load i32, i32* %2, align 4
  %11 = load i32, i32* %3, align 4
  %12 = srem i32 %10, %11
  %13 = icmp eq i32 %12, 0
  br i1 %13, label %14, label %15

14:                                               ; preds = %9
  br label %19

15:                                               ; preds = %9
  br label %16

16:                                               ; preds = %15
  %17 = load i32, i32* %3, align 4
  %18 = add nsw i32 %17, 1
  store i32 %18, i32* %3, align 4
  br label %5

19:                                               ; preds = %14, %5
  %20 = load i32, i32* %3, align 4
  %21 = load i32, i32* %2, align 4
  %22 = icmp eq i32 %20, %21
  br i1 %22, label %23, label %24

23:                                               ; preds = %19
  store i32 1, i32* %4, align 4
  br label %25

24:                                               ; preds = %19
  store i32 2, i32* %4, align 4
  br label %25

25:                                               ; preds = %24, %23
  %26 = load i32, i32* %4, align 4
  ret i32 %26
}

declare dso_local i32 @printf(i8*, ...) #1

declare dso_local i32 @getchar() #1


!llvm.module.flags = !{!0}
!llvm.ident = !{!1}

!0 = !{i32 1, !"wchar_size", i32 4}
!1 = !{!"clang version 10.0.0-4ubuntu1 "}
